target datalayout = "e-m:e-p270:32:32-p271:32:32-p272:64:64-i64:64-i128:128-f80:128-n8:16:32:64-S128"
target triple = "x86_64-unknown-linux-gnu"

%"struct.rocksdb::CompressedSecondaryCache::CacheValueChunk" = type { ptr, i64, [1 x i8] }
%class.anon = type { i8 }

; Function Attrs: mustprogress nounwind uwtable
define linkonce_odr void @_ZN7rocksdb24CompressedSecondaryCache15CacheValueChunk4FreeEv(ptr noundef nonnull align 8 dereferenceable(24) %this) #1 comdat align 2 {
entry:
  %this.addr = alloca ptr, align 8
  store ptr %this, ptr %this.addr, align 8
  %this1 = load ptr, ptr %this.addr, align 8
  %isnull = icmp eq ptr %this1, null
  br i1 %isnull, label %delete.end, label %delete.notnull

delete.notnull:                                   ; preds = %entry
  call void @_ZdaPv(ptr noundef %this1) #15
  br label %delete.end

delete.end:                                       ; preds = %delete.notnull, %entry
  ret void
}

; Function Attrs: mustprogress uwtable
define internal void @"_ZZNK7rocksdb24CompressedSecondaryCache9GetHelperEbENK3$_0clEPvPNS_15MemoryAllocatorE"(ptr noundef nonnull align 1 dereferenceable(1) %this, ptr noundef %obj, ptr noundef %0) #0 align 2 {
entry:
  %this.addr = alloca ptr, align 8
  %obj.addr = alloca ptr, align 8
  %.addr = alloca ptr, align 8
  %chunks_head = alloca ptr, align 8
  %tmp_chunk = alloca ptr, align 8
  store ptr %this, ptr %this.addr, align 8
  store ptr %obj, ptr %obj.addr, align 8
  store ptr %0, ptr %.addr, align 8
  %1 = load ptr, ptr %obj.addr, align 8
  store ptr %1, ptr %chunks_head, align 8
  br label %while.cond

while.cond:                                       ; preds = %while.body, %entry
  %2 = load ptr, ptr %chunks_head, align 8
  %cmp = icmp ne ptr %2, null
  br i1 %cmp, label %while.body, label %while.end

while.body:                                       ; preds = %while.cond
  %3 = load ptr, ptr %chunks_head, align 8
  store ptr %3, ptr %tmp_chunk, align 8
  %4 = load ptr, ptr %chunks_head, align 8
  %next = getelementptr inbounds %"struct.rocksdb::CompressedSecondaryCache::CacheValueChunk", ptr %4, i32 0, i32 0
  %5 = load ptr, ptr %next, align 8
  store ptr %5, ptr %chunks_head, align 8
  %6 = load ptr, ptr %tmp_chunk, align 8
  call void @_ZN7rocksdb24CompressedSecondaryCache15CacheValueChunk4FreeEv(ptr noundef nonnull align 8 dereferenceable(24) %6)
  store ptr null, ptr %obj.addr, align 8
  br label %while.cond, !llvm.loop !11

while.end:                                        ; preds = %while.cond
  ret void
}

; Function Attrs: mustprogress uwtable
define internal void @"_ZZNK7rocksdb24CompressedSecondaryCache9GetHelperEbEN3$_08__invokeEPvPNS_15MemoryAllocatorE"(ptr noundef %obj, ptr noundef %0) #0 align 2 {
entry:
  %obj.addr = alloca ptr, align 8
  %.addr = alloca ptr, align 8
  %unused.capture = alloca %class.anon, align 1
  store ptr %obj, ptr %obj.addr, align 8
  store ptr %0, ptr %.addr, align 8
  %1 = load ptr, ptr %obj.addr, align 8
  %2 = load ptr, ptr %.addr, align 8
  call void @"_ZZNK7rocksdb24CompressedSecondaryCache9GetHelperEbENK3$_0clEPvPNS_15MemoryAllocatorE"(ptr noundef nonnull align 1 dereferenceable(1) %unused.capture, ptr noundef %1, ptr noundef %2)
  ret void
}