; Function Attrs: mustprogress nounwind uwtable
define internal void @"_ZZNK7rocksdb24CompressedSecondaryCache9GetHelperEbEN3$_08__invokeEPvPNS_15MemoryAllocatorE"(ptr noundef %obj, ptr nocapture readnone %0) #2 align 2 {
entry:
  %cmp.not1.i = icmp eq ptr %obj, null
  br i1 %cmp.not1.i, label %"_ZZNK7rocksdb24CompressedSecondaryCache9GetHelperEbENK3$_0clEPvPNS_15MemoryAllocatorE.exit", label %while.body.i

while.body.i:                                     ; preds = %entry, %while.body.i
  %chunks_head.02.i = phi ptr [ %1, %while.body.i ], [ %obj, %entry ]
  %1 = load ptr, ptr %chunks_head.02.i, align 8
  tail call void @_ZdaPv(ptr noundef nonnull %chunks_head.02.i) #20
  %cmp.not.i = icmp eq ptr %1, null
  br i1 %cmp.not.i, label %"_ZZNK7rocksdb24CompressedSecondaryCache9GetHelperEbENK3$_0clEPvPNS_15MemoryAllocatorE.exit", label %while.body.i, !llvm.loop !72

"_ZZNK7rocksdb24CompressedSecondaryCache9GetHelperEbENK3$_0clEPvPNS_15MemoryAllocatorE.exit": ; preds = %while.body.i, %entry
  ret void
}